; ModuleID = 'source-C-CXX/11/1376.cpp'
source_filename = "source-C-CXX/11/1376.cpp"
target datalayout = "e-m:e-p270:32:32-p271:32:32-p272:64:64-i64:64-f80:128-n8:16:32:64-S128"
target triple = "x86_64-pc-linux-gnu"

%"class.std::ios_base::Init" = type { i8 }
%"class.std::basic_istream" = type { i32 (...)**, i64, %"class.std::basic_ios" }
%"class.std::basic_ios" = type { %"class.std::ios_base", %"class.std::basic_ostream"*, i8, i8, %"class.std::basic_streambuf"*, %"class.std::ctype"*, %"class.std::num_put"*, %"class.std::num_get"* }
%"class.std::ios_base" = type { i32 (...)**, i64, i64, i32, i32, i32, %"struct.std::ios_base::_Callback_list"*, %"struct.std::ios_base::_Words", [8 x %"struct.std::ios_base::_Words"], i32, %"struct.std::ios_base::_Words"*, %"class.std::locale" }
%"struct.std::ios_base::_Callback_list" = type { %"struct.std::ios_base::_Callback_list"*, void (i32, %"class.std::ios_base"*, i32)*, i32, i32 }
%"struct.std::ios_base::_Words" = type { i8*, i64 }
%"class.std::locale" = type { %"class.std::locale::_Impl"* }
%"class.std::locale::_Impl" = type { i32, %"class.std::locale::facet"**, i64, %"class.std::locale::facet"**, i8** }
%"class.std::locale::facet" = type <{ i32 (...)**, i32, [4 x i8] }>
%"class.std::basic_ostream" = type { i32 (...)**, %"class.std::basic_ios" }
%"class.std::basic_streambuf" = type { i32 (...)**, i8*, i8*, i8*, i8*, i8*, i8*, %"class.std::locale" }
%"class.std::ctype" = type <{ %"class.std::locale::facet.base", [4 x i8], %struct.__locale_struct*, i8, [7 x i8], i32*, i32*, i16*, i8, [256 x i8], [256 x i8], i8, [6 x i8] }>
%"class.std::locale::facet.base" = type <{ i32 (...)**, i32 }>
%struct.__locale_struct = type { [13 x %struct.__locale_data*], i16*, i32*, i32*, [13 x i8*] }
%struct.__locale_data = type opaque
%"class.std::num_put" = type { %"class.std::locale::facet.base", [4 x i8] }
%"class.std::num_get" = type { %"class.std::locale::facet.base", [4 x i8] }

@_ZStL8__ioinit = internal global %"class.std::ios_base::Init" zeroinitializer, align 1
@__dso_handle = external hidden global i8
@_ZSt3cin = external global %"class.std::basic_istream", align 8
@_ZSt4cout = external global %"class.std::basic_ostream", align 8
@llvm.global_ctors = appending global [1 x { i32, void ()*, i8* }] [{ i32, void ()*, i8* } { i32 65535, void ()* @_GLOBAL__sub_I_1376.cpp, i8* null }]

declare void @_ZNSt8ios_base4InitC1Ev(%"class.std::ios_base::Init"* nonnull align 1 dereferenceable(1)) unnamed_addr #0

; Function Attrs: nounwind
declare void @_ZNSt8ios_base4InitD1Ev(%"class.std::ios_base::Init"* nonnull align 1 dereferenceable(1)) unnamed_addr #1

; Function Attrs: nofree nounwind
declare i32 @__cxa_atexit(void (i8*)*, i8*, i8*) local_unnamed_addr #2

; Function Attrs: mustprogress norecurse sspstrong uwtable
define dso_local i32 @main() local_unnamed_addr #3 {
  %1 = alloca [16 x i32], align 16
  %2 = bitcast [16 x i32]* %1 to i8*
  call void @llvm.lifetime.start.p0i8(i64 64, i8* nonnull %2) #10
  call void @llvm.memset.p0i8.i64(i8* noundef nonnull align 16 dereferenceable(64) %2, i8 0, i64 64, i1 false)
  br label %3

3:                                                ; preds = %19, %0
  %4 = phi i64 [ 0, %0 ], [ %20, %19 ]
  %5 = getelementptr inbounds [16 x i32], [16 x i32]* %1, i64 0, i64 %4
  %6 = call nonnull align 8 dereferenceable(16) %"class.std::basic_istream"* @_ZNSirsERi(%"class.std::basic_istream"* nonnull align 8 dereferenceable(16) @_ZSt3cin, i32* nonnull align 4 dereferenceable(4) %5)
  %7 = load i32, i32* %5, align 4, !tbaa !5
  switch i32 %7, label %17 [
    i32 -1, label %16
    i32 0, label %8
  ]

8:                                                ; preds = %3
  %9 = trunc i64 %4 to i32
  %10 = icmp ugt i32 %9, 1
  br i1 %10, label %11, label %25

11:                                               ; preds = %8
  %12 = and i64 %4, 4294967295
  %13 = add i32 %9, -1
  %14 = call i32 @llvm.smax.i32(i32 %13, i32 1)
  %15 = zext i32 %14 to i64
  br label %57

16:                                               ; preds = %3
  call void @llvm.lifetime.end.p0i8(i64 64, i8* nonnull %2) #10
  ret i32 0

17:                                               ; preds = %3
  %18 = add nuw i64 %4, 1
  br label %19

19:                                               ; preds = %17, %53
  %20 = phi i64 [ %18, %17 ], [ 0, %53 ]
  br label %3, !llvm.loop !9

21:                                               ; preds = %114, %107, %57
  %22 = phi i32 [ %60, %57 ], [ %109, %107 ], [ %124, %114 ]
  %23 = add nuw nsw i64 %59, 1
  %24 = icmp eq i64 %63, %15
  br i1 %24, label %25, label %57, !llvm.loop !11

25:                                               ; preds = %21, %8
  %26 = phi i32 [ 0, %8 ], [ %22, %21 ]
  %27 = call nonnull align 8 dereferenceable(8) %"class.std::basic_ostream"* @_ZNSolsEi(%"class.std::basic_ostream"* nonnull align 8 dereferenceable(8) @_ZSt4cout, i32 %26)
  %28 = bitcast %"class.std::basic_ostream"* %27 to i8**
  %29 = load i8*, i8** %28, align 8, !tbaa !12
  %30 = getelementptr i8, i8* %29, i64 -24
  %31 = bitcast i8* %30 to i64*
  %32 = load i64, i64* %31, align 8
  %33 = bitcast %"class.std::basic_ostream"* %27 to i8*
  %34 = add nsw i64 %32, 240
  %35 = getelementptr inbounds i8, i8* %33, i64 %34
  %36 = bitcast i8* %35 to %"class.std::ctype"**
  %37 = load %"class.std::ctype"*, %"class.std::ctype"** %36, align 8, !tbaa !14
  %38 = icmp eq %"class.std::ctype"* %37, null
  br i1 %38, label %39, label %40

39:                                               ; preds = %25
  call void @_ZSt16__throw_bad_castv() #11
  unreachable

40:                                               ; preds = %25
  %41 = getelementptr inbounds %"class.std::ctype", %"class.std::ctype"* %37, i64 0, i32 8
  %42 = load i8, i8* %41, align 8, !tbaa !18
  %43 = icmp eq i8 %42, 0
  br i1 %43, label %47, label %44

44:                                               ; preds = %40
  %45 = getelementptr inbounds %"class.std::ctype", %"class.std::ctype"* %37, i64 0, i32 9, i64 10
  %46 = load i8, i8* %45, align 1, !tbaa !20
  br label %53

47:                                               ; preds = %40
  call void @_ZNKSt5ctypeIcE13_M_widen_initEv(%"class.std::ctype"* nonnull align 8 dereferenceable(570) %37)
  %48 = bitcast %"class.std::ctype"* %37 to i8 (%"class.std::ctype"*, i8)***
  %49 = load i8 (%"class.std::ctype"*, i8)**, i8 (%"class.std::ctype"*, i8)*** %48, align 8, !tbaa !12
  %50 = getelementptr inbounds i8 (%"class.std::ctype"*, i8)*, i8 (%"class.std::ctype"*, i8)** %49, i64 6
  %51 = load i8 (%"class.std::ctype"*, i8)*, i8 (%"class.std::ctype"*, i8)** %50, align 8
  %52 = call signext i8 %51(%"class.std::ctype"* nonnull align 8 dereferenceable(570) %37, i8 signext 10)
  br label %53

53:                                               ; preds = %44, %47
  %54 = phi i8 [ %46, %44 ], [ %52, %47 ]
  %55 = call nonnull align 8 dereferenceable(8) %"class.std::basic_ostream"* @_ZNSo3putEc(%"class.std::basic_ostream"* nonnull align 8 dereferenceable(8) %27, i8 signext %54)
  %56 = call nonnull align 8 dereferenceable(8) %"class.std::basic_ostream"* @_ZNSo5flushEv(%"class.std::basic_ostream"* nonnull align 8 dereferenceable(8) %55)
  br label %19

57:                                               ; preds = %11, %21
  %58 = phi i64 [ 0, %11 ], [ %63, %21 ]
  %59 = phi i64 [ 1, %11 ], [ %23, %21 ]
  %60 = phi i32 [ 0, %11 ], [ %22, %21 ]
  %61 = xor i64 %58, -1
  %62 = add nsw i64 %12, %61
  %63 = add nuw nsw i64 %58, 1
  %64 = icmp ult i64 %63, %12
  br i1 %64, label %65, label %21

65:                                               ; preds = %57
  %66 = getelementptr inbounds [16 x i32], [16 x i32]* %1, i64 0, i64 %58
  %67 = load i32, i32* %66, align 4, !tbaa !5
  %68 = shl nsw i32 %67, 1
  %69 = icmp ult i64 %62, 8
  br i1 %69, label %111, label %70

70:                                               ; preds = %65
  %71 = and i64 %62, -8
  %72 = add i64 %59, %71
  %73 = insertelement <4 x i32> <i32 poison, i32 0, i32 0, i32 0>, i32 %60, i32 0
  %74 = insertelement <4 x i32> poison, i32 %67, i32 0
  %75 = shufflevector <4 x i32> %74, <4 x i32> poison, <4 x i32> zeroinitializer
  %76 = insertelement <4 x i32> poison, i32 %67, i32 0
  %77 = shufflevector <4 x i32> %76, <4 x i32> poison, <4 x i32> zeroinitializer
  %78 = insertelement <4 x i32> poison, i32 %68, i32 0
  %79 = shufflevector <4 x i32> %78, <4 x i32> poison, <4 x i32> zeroinitializer
  %80 = insertelement <4 x i32> poison, i32 %68, i32 0
  %81 = shufflevector <4 x i32> %80, <4 x i32> poison, <4 x i32> zeroinitializer
  br label %82

82:                                               ; preds = %82, %70
  %83 = phi i64 [ 0, %70 ], [ %105, %82 ]
  %84 = phi <4 x i32> [ %73, %70 ], [ %103, %82 ]
  %85 = phi <4 x i32> [ zeroinitializer, %70 ], [ %104, %82 ]
  %86 = add i64 %59, %83
  %87 = getelementptr inbounds [16 x i32], [16 x i32]* %1, i64 0, i64 %86
  %88 = bitcast i32* %87 to <4 x i32>*
  %89 = load <4 x i32>, <4 x i32>* %88, align 4, !tbaa !5
  %90 = getelementptr inbounds i32, i32* %87, i64 4
  %91 = bitcast i32* %90 to <4 x i32>*
  %92 = load <4 x i32>, <4 x i32>* %91, align 4, !tbaa !5
  %93 = shl nsw <4 x i32> %89, <i32 1, i32 1, i32 1, i32 1>
  %94 = shl nsw <4 x i32> %92, <i32 1, i32 1, i32 1, i32 1>
  %95 = icmp eq <4 x i32> %75, %93
  %96 = icmp eq <4 x i32> %77, %94
  %97 = icmp eq <4 x i32> %89, %79
  %98 = icmp eq <4 x i32> %92, %81
  %99 = select <4 x i1> %95, <4 x i1> <i1 true, i1 true, i1 true, i1 true>, <4 x i1> %97
  %100 = select <4 x i1> %96, <4 x i1> <i1 true, i1 true, i1 true, i1 true>, <4 x i1> %98
  %101 = zext <4 x i1> %99 to <4 x i32>
  %102 = zext <4 x i1> %100 to <4 x i32>
  %103 = add <4 x i32> %84, %101
  %104 = add <4 x i32> %85, %102
  %105 = add nuw i64 %83, 8
  %106 = icmp eq i64 %105, %71
  br i1 %106, label %107, label %82, !llvm.loop !21

107:                                              ; preds = %82
  %108 = add <4 x i32> %104, %103
  %109 = call i32 @llvm.vector.reduce.add.v4i32(<4 x i32> %108)
  %110 = icmp eq i64 %62, %71
  br i1 %110, label %21, label %111

111:                                              ; preds = %65, %107
  %112 = phi i64 [ %59, %65 ], [ %72, %107 ]
  %113 = phi i32 [ %60, %65 ], [ %109, %107 ]
  br label %114

114:                                              ; preds = %111, %114
  %115 = phi i64 [ %125, %114 ], [ %112, %111 ]
  %116 = phi i32 [ %124, %114 ], [ %113, %111 ]
  %117 = getelementptr inbounds [16 x i32], [16 x i32]* %1, i64 0, i64 %115
  %118 = load i32, i32* %117, align 4, !tbaa !5
  %119 = shl nsw i32 %118, 1
  %120 = icmp eq i32 %67, %119
  %121 = icmp eq i32 %118, %68
  %122 = select i1 %120, i1 true, i1 %121
  %123 = zext i1 %122 to i32
  %124 = add nsw i32 %116, %123
  %125 = add nuw nsw i64 %115, 1
  %126 = icmp eq i64 %125, %12
  br i1 %126, label %21, label %114, !llvm.loop !23
}

; Function Attrs: argmemonly mustprogress nofree nosync nounwind willreturn
declare void @llvm.lifetime.start.p0i8(i64 immarg, i8* nocapture) #4

; Function Attrs: argmemonly mustprogress nofree nounwind willreturn writeonly
declare void @llvm.memset.p0i8.i64(i8* nocapture writeonly, i8, i64, i1 immarg) #5

declare nonnull align 8 dereferenceable(16) %"class.std::basic_istream"* @_ZNSirsERi(%"class.std::basic_istream"* nonnull align 8 dereferenceable(16), i32* nonnull align 4 dereferenceable(4)) local_unnamed_addr #0

; Function Attrs: argmemonly mustprogress nofree nosync nounwind willreturn
declare void @llvm.lifetime.end.p0i8(i64 immarg, i8* nocapture) #4

declare nonnull align 8 dereferenceable(8) %"class.std::basic_ostream"* @_ZNSolsEi(%"class.std::basic_ostream"* nonnull align 8 dereferenceable(8), i32) local_unnamed_addr #0

declare nonnull align 8 dereferenceable(8) %"class.std::basic_ostream"* @_ZNSo3putEc(%"class.std::basic_ostream"* nonnull align 8 dereferenceable(8), i8 signext) local_unnamed_addr #0

declare nonnull align 8 dereferenceable(8) %"class.std::basic_ostream"* @_ZNSo5flushEv(%"class.std::basic_ostream"* nonnull align 8 dereferenceable(8)) local_unnamed_addr #0

; Function Attrs: noreturn
declare void @_ZSt16__throw_bad_castv() local_unnamed_addr #6

declare void @_ZNKSt5ctypeIcE13_M_widen_initEv(%"class.std::ctype"* nonnull align 8 dereferenceable(570)) local_unnamed_addr #0

; Function Attrs: sspstrong uwtable
define internal void @_GLOBAL__sub_I_1376.cpp() #7 section ".text.startup" {
  tail call void @_ZNSt8ios_base4InitC1Ev(%"class.std::ios_base::Init"* nonnull align 1 dereferenceable(1) @_ZStL8__ioinit)
  %1 = tail call i32 @__cxa_atexit(void (i8*)* bitcast (void (%"class.std::ios_base::Init"*)* @_ZNSt8ios_base4InitD1Ev to void (i8*)*), i8* getelementptr inbounds (%"class.std::ios_base::Init", %"class.std::ios_base::Init"* @_ZStL8__ioinit, i64 0, i32 0), i8* nonnull @__dso_handle) #10
  ret void
}

; Function Attrs: nofree nosync nounwind readnone speculatable willreturn
declare i32 @llvm.smax.i32(i32, i32) #8

; Function Attrs: nofree nosync nounwind readnone willreturn
declare i32 @llvm.vector.reduce.add.v4i32(<4 x i32>) #9


!llvm.module.flags = !{!0, !1, !2, !3}
!llvm.ident = !{!4}

!0 = !{i32 1, !"wchar_size", i32 4}
!1 = !{i32 7, !"PIC Level", i32 2}
!2 = !{i32 7, !"PIE Level", i32 2}
!3 = !{i32 7, !"uwtable", i32 1}
!4 = !{!"clang version 13.0.0"}
!5 = !{!6, !6, i64 0}
!6 = !{!"int", !7, i64 0}
!7 = !{!"omnipotent char", !8, i64 0}
!8 = !{!"Simple C++ TBAA"}
!9 = distinct !{!9, !10}
!10 = !{!"llvm.loop.mustprogress"}
!11 = distinct !{!11, !10}
!12 = !{!13, !13, i64 0}
!13 = !{!"vtable pointer", !8, i64 0}
!14 = !{!15, !16, i64 240}
!15 = !{!"_ZTSSt9basic_iosIcSt11char_traitsIcEE", !16, i64 216, !7, i64 224, !17, i64 225, !16, i64 232, !16, i64 240, !16, i64 248, !16, i64 256}
!16 = !{!"any pointer", !7, i64 0}
!17 = !{!"bool", !7, i64 0}
!18 = !{!19, !7, i64 56}
!19 = !{!"_ZTSSt5ctypeIcE", !16, i64 16, !17, i64 24, !16, i64 32, !16, i64 40, !16, i64 48, !7, i64 56, !7, i64 57, !7, i64 313, !7, i64 569}
!20 = !{!7, !7, i64 0}
!21 = distinct !{!21, !10, !22}
!22 = !{!"llvm.loop.isvectorized", i32 1}
!23 = distinct !{!23, !10, !24, !22}
!24 = !{!"llvm.loop.unroll.runtime.disable"}
